; Function Attrs: mustprogress nofree norecurse nosync nounwind willreturn memory(read, inaccessiblemem: none) uwtable
define internal noundef i32 @_ZL20sort_field_by_offsetPP7ciFieldS1_(ptr nocapture noundef readonly %0, ptr nocapture noundef readonly %1) #5 {
  %3 = load ptr, ptr %0, align 8
  %4 = getelementptr inbounds i8, ptr %3, i64 40
  %5 = load i32, ptr %4, align 8
  %6 = load ptr, ptr %1, align 8
  %7 = getelementptr inbounds i8, ptr %6, i64 40
  %8 = load i32, ptr %7, align 8
  %9 = sub nsw i32 %5, %8
  ret i32 %9
}